; Function Attrs: mustprogress uwtable
define hidden noundef zeroext i1 @_ZNK19OpenColorIO_v2_5dev22ExposureContrastOpData9isInverseERSt10shared_ptrIKS0_E(ptr noundef nonnull align 8 dereferenceable(248) %0, ptr noundef nonnull readonly align 8 captures(none) dereferenceable(16) %1) local_unnamed_addr #0 align 2 personality ptr @__gxx_personality_v0 {
  %3 = alloca %"class.std::shared_ptr.9", align 8
  %4 = getelementptr inbounds nuw i8, ptr %0, i64 176
  %5 = load ptr, ptr %4, align 8, !tbaa !42
  %6 = getelementptr inbounds nuw i8, ptr %5, i64 12
  %7 = load i8, ptr %6, align 4, !tbaa !76, !range !81, !noundef !82
  %8 = trunc nuw i8 %7 to i1
  br i1 %8, label %_ZNK19OpenColorIO_v2_5dev22ExposureContrastOpData9isDynamicEv.exit.thread, label %9

9:                                                ; preds = %2
  %10 = getelementptr inbounds nuw i8, ptr %0, i64 192
  %11 = load ptr, ptr %10, align 8, !tbaa !42
  %12 = getelementptr inbounds nuw i8, ptr %11, i64 12
  %13 = load i8, ptr %12, align 4, !tbaa !76, !range !81, !noundef !82
  %14 = trunc nuw i8 %13 to i1
  br i1 %14, label %_ZNK19OpenColorIO_v2_5dev22ExposureContrastOpData9isDynamicEv.exit.thread, label %_ZNK19OpenColorIO_v2_5dev22ExposureContrastOpData9isDynamicEv.exit

_ZNK19OpenColorIO_v2_5dev22ExposureContrastOpData9isDynamicEv.exit: ; preds = %9
  %15 = getelementptr inbounds nuw i8, ptr %0, i64 208
  %16 = load ptr, ptr %15, align 8, !tbaa !42
  %17 = getelementptr inbounds nuw i8, ptr %16, i64 12
  %18 = load i8, ptr %17, align 4, !tbaa !76, !range !81, !noundef !82
  %19 = trunc nuw i8 %18 to i1
  br i1 %19, label %_ZNK19OpenColorIO_v2_5dev22ExposureContrastOpData9isDynamicEv.exit.thread, label %20

20:                                               ; preds = %_ZNK19OpenColorIO_v2_5dev22ExposureContrastOpData9isDynamicEv.exit
  %21 = load ptr, ptr %1, align 8, !tbaa !83
  %22 = getelementptr inbounds nuw i8, ptr %21, i64 176
  %23 = load ptr, ptr %22, align 8, !tbaa !42
  %24 = getelementptr inbounds nuw i8, ptr %23, i64 12
  %25 = load i8, ptr %24, align 4, !tbaa !76, !range !81, !noundef !82
  %26 = trunc nuw i8 %25 to i1
  br i1 %26, label %_ZNK19OpenColorIO_v2_5dev22ExposureContrastOpData9isDynamicEv.exit.thread, label %27

27:                                               ; preds = %20
  %28 = getelementptr inbounds nuw i8, ptr %21, i64 192
  %29 = load ptr, ptr %28, align 8, !tbaa !42
  %30 = getelementptr inbounds nuw i8, ptr %29, i64 12
  %31 = load i8, ptr %30, align 4, !tbaa !76, !range !81, !noundef !82
  %32 = trunc nuw i8 %31 to i1
  br i1 %32, label %_ZNK19OpenColorIO_v2_5dev22ExposureContrastOpData9isDynamicEv.exit.thread, label %_ZNK19OpenColorIO_v2_5dev22ExposureContrastOpData9isDynamicEv.exit5

_ZNK19OpenColorIO_v2_5dev22ExposureContrastOpData9isDynamicEv.exit5: ; preds = %27
  %33 = getelementptr inbounds nuw i8, ptr %21, i64 208
  %34 = load ptr, ptr %33, align 8, !tbaa !42
  %35 = getelementptr inbounds nuw i8, ptr %34, i64 12
  %36 = load i8, ptr %35, align 4, !tbaa !76, !range !81, !noundef !82
  %37 = trunc nuw i8 %36 to i1
  br i1 %37, label %_ZNK19OpenColorIO_v2_5dev22ExposureContrastOpData9isDynamicEv.exit.thread, label %38

38:                                               ; preds = %_ZNK19OpenColorIO_v2_5dev22ExposureContrastOpData9isDynamicEv.exit5
  call void @llvm.lifetime.start.p0(i64 16, ptr nonnull %3) #19
  call void @_ZNK19OpenColorIO_v2_5dev22ExposureContrastOpData7inverseEv(ptr dead_on_unwind nonnull writable sret(%"class.std::shared_ptr.9") align 8 %3, ptr noundef nonnull align 8 dereferenceable(248) %0)
  %39 = load ptr, ptr %3, align 8, !tbaa !72
  %40 = load ptr, ptr %21, align 8, !tbaa !13
  %41 = getelementptr inbounds nuw i8, ptr %40, i64 72
  %42 = load ptr, ptr %41, align 8
  %43 = invoke noundef zeroext i1 %42(ptr noundef nonnull align 8 dereferenceable(248) %21, ptr noundef nonnull align 8 dereferenceable(248) %39)
          to label %_ZN19OpenColorIO_v2_5deveqERKNS_22ExposureContrastOpDataES2_.exit unwind label %67

_ZN19OpenColorIO_v2_5deveqERKNS_22ExposureContrastOpDataES2_.exit: ; preds = %38
  %44 = getelementptr inbounds nuw i8, ptr %3, i64 8
  %45 = load ptr, ptr %44, align 8, !tbaa !47
  %.not.i.i = icmp eq ptr %45, null
  br i1 %.not.i.i, label %_ZNSt12__shared_ptrIN19OpenColorIO_v2_5dev22ExposureContrastOpDataELN9__gnu_cxx12_Lock_policyE2EED2Ev.exit, label %46

46:                                               ; preds = %_ZN19OpenColorIO_v2_5deveqERKNS_22ExposureContrastOpDataES2_.exit
  %47 = getelementptr inbounds nuw i8, ptr %45, i64 8
  %48 = load atomic i64, ptr %47 acquire, align 8
  %49 = icmp eq i64 %48, 4294967297
  %50 = trunc i64 %48 to i32
  br i1 %49, label %51, label %59

51:                                               ; preds = %46
  store i32 0, ptr %47, align 8, !tbaa !43
  %52 = getelementptr inbounds nuw i8, ptr %45, i64 12
  store i32 0, ptr %52, align 4, !tbaa !46
  %53 = load ptr, ptr %45, align 8, !tbaa !13
  %54 = getelementptr inbounds nuw i8, ptr %53, i64 16
  %55 = load ptr, ptr %54, align 8
  call void %55(ptr noundef nonnull align 8 dereferenceable(16) %45) #19
  %56 = load ptr, ptr %45, align 8, !tbaa !13
  %57 = getelementptr inbounds nuw i8, ptr %56, i64 24
  %58 = load ptr, ptr %57, align 8
  call void %58(ptr noundef nonnull align 8 dereferenceable(16) %45) #19
  br label %_ZNSt12__shared_ptrIN19OpenColorIO_v2_5dev22ExposureContrastOpDataELN9__gnu_cxx12_Lock_policyE2EED2Ev.exit

59:                                               ; preds = %46
  %60 = load i8, ptr @__libc_single_threaded, align 1, !tbaa !3
  %.not.i.i.i = icmp eq i8 %60, 0
  br i1 %.not.i.i.i, label %63, label %61

61:                                               ; preds = %59
  %62 = add nsw i32 %50, -1
  store i32 %62, ptr %47, align 4, !tbaa !58
  br label %_ZN9__gnu_cxx27__exchange_and_add_dispatchEPii.exit.i.i.i

63:                                               ; preds = %59
  %64 = atomicrmw volatile add ptr %47, i32 -1 acq_rel, align 4
  br label %_ZN9__gnu_cxx27__exchange_and_add_dispatchEPii.exit.i.i.i

_ZN9__gnu_cxx27__exchange_and_add_dispatchEPii.exit.i.i.i: ; preds = %63, %61
  %.0.i.i.i.i = phi i32 [ %50, %61 ], [ %64, %63 ]
  %65 = icmp eq i32 %.0.i.i.i.i, 1
  br i1 %65, label %66, label %_ZNSt12__shared_ptrIN19OpenColorIO_v2_5dev22ExposureContrastOpDataELN9__gnu_cxx12_Lock_policyE2EED2Ev.exit, !prof !59

66:                                               ; preds = %_ZN9__gnu_cxx27__exchange_and_add_dispatchEPii.exit.i.i.i
  call void @_ZNSt16_Sp_counted_baseILN9__gnu_cxx12_Lock_policyE2EE24_M_release_last_use_coldEv(ptr noundef nonnull align 8 dereferenceable(16) %45) #19
  br label %_ZNSt12__shared_ptrIN19OpenColorIO_v2_5dev22ExposureContrastOpDataELN9__gnu_cxx12_Lock_policyE2EED2Ev.exit

_ZNSt12__shared_ptrIN19OpenColorIO_v2_5dev22ExposureContrastOpDataELN9__gnu_cxx12_Lock_policyE2EED2Ev.exit: ; preds = %_ZN19OpenColorIO_v2_5deveqERKNS_22ExposureContrastOpDataES2_.exit, %51, %_ZN9__gnu_cxx27__exchange_and_add_dispatchEPii.exit.i.i.i, %66
  call void @llvm.lifetime.end.p0(i64 16, ptr nonnull %3) #19
  br label %_ZNK19OpenColorIO_v2_5dev22ExposureContrastOpData9isDynamicEv.exit.thread

67:                                               ; preds = %38
  %68 = landingpad { ptr, i32 }
          cleanup
  call void @_ZNSt12__shared_ptrIN19OpenColorIO_v2_5dev22ExposureContrastOpDataELN9__gnu_cxx12_Lock_policyE2EED2Ev(ptr noundef nonnull align 8 dereferenceable(16) %3) #19
  call void @llvm.lifetime.end.p0(i64 16, ptr nonnull %3) #19
  resume { ptr, i32 } %68

_ZNK19OpenColorIO_v2_5dev22ExposureContrastOpData9isDynamicEv.exit.thread: ; preds = %20, %27, %2, %9, %_ZNK19OpenColorIO_v2_5dev22ExposureContrastOpData9isDynamicEv.exit, %_ZNK19OpenColorIO_v2_5dev22ExposureContrastOpData9isDynamicEv.exit5, %_ZNSt12__shared_ptrIN19OpenColorIO_v2_5dev22ExposureContrastOpDataELN9__gnu_cxx12_Lock_policyE2EED2Ev.exit
  %.0 = phi i1 [ %43, %_ZNSt12__shared_ptrIN19OpenColorIO_v2_5dev22ExposureContrastOpDataELN9__gnu_cxx12_Lock_policyE2EED2Ev.exit ], [ false, %_ZNK19OpenColorIO_v2_5dev22ExposureContrastOpData9isDynamicEv.exit5 ], [ false, %_ZNK19OpenColorIO_v2_5dev22ExposureContrastOpData9isDynamicEv.exit ], [ false, %9 ], [ false, %2 ], [ false, %27 ], [ false, %20 ]
  ret i1 %.0
}